target datalayout = "e-m:e-p270:32:32-p271:32:32-p272:64:64-i64:64-i128:128-f80:128-n8:16:32:64-S128"
target triple = "x86_64-pc-linux-gnu"

%"class.Assimp::OptimizeMeshesProcess" = type { %"class.Assimp::BaseProcess", ptr, %"class.std::vector", %"class.std::vector.0", i8, i32, i32, %"class.std::vector.0" }
%"class.Assimp::BaseProcess" = type { ptr, ptr, ptr }
%"class.std::vector" = type { %"struct.std::_Vector_base" }
%"struct.std::_Vector_base" = type { %"struct.std::_Vector_base<Assimp::OptimizeMeshesProcess::MeshInfo, std::allocator<Assimp::OptimizeMeshesProcess::MeshInfo>>::_Vector_impl" }
%"struct.std::_Vector_base<Assimp::OptimizeMeshesProcess::MeshInfo, std::allocator<Assimp::OptimizeMeshesProcess::MeshInfo>>::_Vector_impl" = type { %"struct.std::_Vector_base<Assimp::OptimizeMeshesProcess::MeshInfo, std::allocator<Assimp::OptimizeMeshesProcess::MeshInfo>>::_Vector_impl_data" }
%"struct.std::_Vector_base<Assimp::OptimizeMeshesProcess::MeshInfo, std::allocator<Assimp::OptimizeMeshesProcess::MeshInfo>>::_Vector_impl_data" = type { ptr, ptr, ptr }
%"class.std::vector.0" = type { %"struct.std::_Vector_base.1" }
%"struct.std::_Vector_base.1" = type { %"struct.std::_Vector_base<aiMesh *, std::allocator<aiMesh *>>::_Vector_impl" }
%"struct.std::_Vector_base<aiMesh *, std::allocator<aiMesh *>>::_Vector_impl" = type { %"struct.std::_Vector_base<aiMesh *, std::allocator<aiMesh *>>::_Vector_impl_data" }
%"struct.std::_Vector_base<aiMesh *, std::allocator<aiMesh *>>::_Vector_impl_data" = type { ptr, ptr, ptr }
%struct.aiString = type { i32, [1024 x i8] }
%"struct.Assimp::OptimizeMeshesProcess::MeshInfo" = type { i32, i32, i32 }
%struct.aiNode = type { %struct.aiString, %class.aiMatrix4x4t, ptr, i32, ptr, i32, ptr, ptr }
%class.aiMatrix4x4t = type { float, float, float, float, float, float, float, float, float, float, float, float, float, float, float, float }

; Function Attrs: mustprogress nounwind uwtable
define linkonce_odr hidden noundef nonnull align 4 dereferenceable(12) ptr @_ZNSt6vectorIN6Assimp21OptimizeMeshesProcess8MeshInfoESaIS2_EEixEm(ptr noundef nonnull align 8 dereferenceable(24) %0, i64 noundef %1) #0 comdat align 2 {
  %3 = alloca ptr, align 8
  %4 = alloca i64, align 8
  store ptr %0, ptr %3, align 8
  store i64 %1, ptr %4, align 8
  %5 = load ptr, ptr %3, align 8
  %6 = getelementptr inbounds nuw %"struct.std::_Vector_base", ptr %5, i32 0, i32 0
  %7 = getelementptr inbounds nuw %"struct.std::_Vector_base<Assimp::OptimizeMeshesProcess::MeshInfo, std::allocator<Assimp::OptimizeMeshesProcess::MeshInfo>>::_Vector_impl_data", ptr %6, i32 0, i32 0
  %8 = load ptr, ptr %7, align 8
  %9 = load i64, ptr %4, align 8
  %10 = getelementptr inbounds nuw %"struct.Assimp::OptimizeMeshesProcess::MeshInfo", ptr %8, i64 %9
  ret ptr %10
}

; Function Attrs: mustprogress uwtable
define hidden void @_ZN6Assimp21OptimizeMeshesProcess19FindInstancedMeshesEP6aiNode(ptr noundef nonnull align 8 dereferenceable(120) %0, ptr noundef %1) #2 align 2 {
  %3 = alloca ptr, align 8
  %4 = alloca ptr, align 8
  %5 = alloca i32, align 4
  %6 = alloca i32, align 4
  store ptr %0, ptr %3, align 8
  store ptr %1, ptr %4, align 8
  %7 = load ptr, ptr %3, align 8
  call void @llvm.lifetime.start.p0(i64 4, ptr %5) #14
  store i32 0, ptr %5, align 4
  br label %8

8:                                                ; preds = %29, %2
  %9 = load i32, ptr %5, align 4
  %10 = load ptr, ptr %4, align 8
  %11 = getelementptr inbounds nuw %struct.aiNode, ptr %10, i32 0, i32 5
  %12 = load i32, ptr %11, align 8
  %13 = icmp ult i32 %9, %12
  br i1 %13, label %15, label %14

14:                                               ; preds = %8
  call void @llvm.lifetime.end.p0(i64 4, ptr %5) #14
  br label %32

15:                                               ; preds = %8
  %16 = getelementptr inbounds nuw %"class.Assimp::OptimizeMeshesProcess", ptr %7, i32 0, i32 2
  %17 = load ptr, ptr %4, align 8
  %18 = getelementptr inbounds nuw %struct.aiNode, ptr %17, i32 0, i32 6
  %19 = load ptr, ptr %18, align 8
  %20 = load i32, ptr %5, align 4
  %21 = zext i32 %20 to i64
  %22 = getelementptr inbounds nuw i32, ptr %19, i64 %21
  %23 = load i32, ptr %22, align 4
  %24 = zext i32 %23 to i64
  %25 = call noundef nonnull align 4 dereferenceable(12) ptr @_ZNSt6vectorIN6Assimp21OptimizeMeshesProcess8MeshInfoESaIS2_EEixEm(ptr noundef nonnull align 8 dereferenceable(24) %16, i64 noundef %24) #14
  %26 = getelementptr inbounds nuw %"struct.Assimp::OptimizeMeshesProcess::MeshInfo", ptr %25, i32 0, i32 0
  %27 = load i32, ptr %26, align 4
  %28 = add i32 %27, 1
  store i32 %28, ptr %26, align 4
  br label %29

29:                                               ; preds = %15
  %30 = load i32, ptr %5, align 4
  %31 = add i32 %30, 1
  store i32 %31, ptr %5, align 4
  br label %8, !llvm.loop !5

32:                                               ; preds = %14
  call void @llvm.lifetime.start.p0(i64 4, ptr %6) #14
  store i32 0, ptr %6, align 4
  br label %33

33:                                               ; preds = %48, %32
  %34 = load i32, ptr %6, align 4
  %35 = load ptr, ptr %4, align 8
  %36 = getelementptr inbounds nuw %struct.aiNode, ptr %35, i32 0, i32 3
  %37 = load i32, ptr %36, align 8
  %38 = icmp ult i32 %34, %37
  br i1 %38, label %40, label %39

39:                                               ; preds = %33
  call void @llvm.lifetime.end.p0(i64 4, ptr %6) #14
  br label %51

40:                                               ; preds = %33
  %41 = load ptr, ptr %4, align 8
  %42 = getelementptr inbounds nuw %struct.aiNode, ptr %41, i32 0, i32 4
  %43 = load ptr, ptr %42, align 8
  %44 = load i32, ptr %6, align 4
  %45 = zext i32 %44 to i64
  %46 = getelementptr inbounds nuw ptr, ptr %43, i64 %45
  %47 = load ptr, ptr %46, align 8
  call void @_ZN6Assimp21OptimizeMeshesProcess19FindInstancedMeshesEP6aiNode(ptr noundef nonnull align 8 dereferenceable(120) %7, ptr noundef %47)
  br label %48

48:                                               ; preds = %40
  %49 = load i32, ptr %6, align 4
  %50 = add i32 %49, 1
  store i32 %50, ptr %6, align 4
  br label %33, !llvm.loop !6

51:                                               ; preds = %39
  ret void
}