; Function Attrs: mustprogress nofree nosync nounwind memory(readwrite, inaccessiblemem: none) uwtable
define hidden void @_ZN6Assimp21OptimizeMeshesProcess19FindInstancedMeshesEP6aiNode(ptr noundef nonnull readonly align 8 captures(none) dereferenceable(120) %0, ptr noundef readonly captures(none) %1) local_unnamed_addr #6 align 2 {
  %3 = getelementptr inbounds nuw i8, ptr %1, i64 1120
  %4 = load i32, ptr %3, align 8
  %.not = icmp eq i32 %4, 0
  br i1 %.not, label %.preheader, label %.lr.ph

.lr.ph:                                           ; preds = %2
  %5 = getelementptr inbounds nuw i8, ptr %0, i64 32
  %6 = getelementptr inbounds nuw i8, ptr %1, i64 1128
  br label %10

.preheader:                                       ; preds = %10, %2
  %7 = getelementptr inbounds nuw i8, ptr %1, i64 1104
  %8 = load i32, ptr %7, align 8
  %.not14 = icmp eq i32 %8, 0
  br i1 %.not14, label %._crit_edge, label %.lr.ph13

.lr.ph13:                                         ; preds = %.preheader
  %9 = getelementptr inbounds nuw i8, ptr %1, i64 1112
  br label %22

10:                                               ; preds = %.lr.ph, %10
  %indvars.iv = phi i64 [ 0, %.lr.ph ], [ %indvars.iv.next, %10 ]
  %11 = load ptr, ptr %6, align 8
  %12 = getelementptr inbounds nuw i32, ptr %11, i64 %indvars.iv
  %13 = load i32, ptr %12, align 4
  %14 = zext i32 %13 to i64
  %15 = load ptr, ptr %5, align 8
  %16 = getelementptr inbounds nuw %"struct.Assimp::OptimizeMeshesProcess::MeshInfo", ptr %15, i64 %14
  %17 = load i32, ptr %16, align 4
  %18 = add i32 %17, 1
  store i32 %18, ptr %16, align 4
  %indvars.iv.next = add nuw nsw i64 %indvars.iv, 1
  %19 = load i32, ptr %3, align 8
  %20 = zext i32 %19 to i64
  %21 = icmp samesign ult i64 %indvars.iv.next, %20
  br i1 %21, label %10, label %.preheader, !llvm.loop !5

._crit_edge:                                      ; preds = %22, %.preheader
  ret void

22:                                               ; preds = %.lr.ph13, %22
  %indvars.iv16 = phi i64 [ 0, %.lr.ph13 ], [ %indvars.iv.next17, %22 ]
  %23 = load ptr, ptr %9, align 8
  %24 = getelementptr inbounds nuw ptr, ptr %23, i64 %indvars.iv16
  %25 = load ptr, ptr %24, align 8
  tail call void @_ZN6Assimp21OptimizeMeshesProcess19FindInstancedMeshesEP6aiNode(ptr noundef nonnull align 8 dereferenceable(120) %0, ptr noundef %25)
  %indvars.iv.next17 = add nuw nsw i64 %indvars.iv16, 1
  %26 = load i32, ptr %7, align 8
  %27 = zext i32 %26 to i64
  %28 = icmp samesign ult i64 %indvars.iv.next17, %27
  br i1 %28, label %22, label %._crit_edge, !llvm.loop !6
}